; ModuleID = '48/1501.c'
source_filename = "48/1501.c"
target datalayout = "e-m:e-p270:32:32-p271:32:32-p272:64:64-i64:64-f80:128-n8:16:32:64-S128"
target triple = "x86_64-pc-linux-gnu"

@.str = private unnamed_addr constant [6 x i8] c"%d %d\00", align 1
@.str.1 = private unnamed_addr constant [3 x i8] c"%d\00", align 1
@.str.2 = private unnamed_addr constant [4 x i8] c" %d\00", align 1
@.str.3 = private unnamed_addr constant [2 x i8] c"\0A\00", align 1

; Function Attrs: noinline nounwind uwtable
define dso_local i32 @main() #0 {
  %1 = alloca i32, align 4
  %2 = alloca [9 x [9 x i32]], align 16
  %3 = alloca [9 x [9 x i32]], align 16
  %4 = alloca i32, align 4
  %5 = alloca i32, align 4
  %6 = alloca i32, align 4
  %7 = alloca i32, align 4
  %8 = alloca i32, align 4
  %9 = alloca i32, align 4
  %10 = alloca i32, align 4
  store i32 0, i32* %1, align 4
  %11 = bitcast [9 x [9 x i32]]* %2 to i8*
  call void @llvm.memset.p0i8.i64(i8* align 16 %11, i8 0, i64 324, i1 false)
  %12 = bitcast [9 x [9 x i32]]* %3 to i8*
  call void @llvm.memset.p0i8.i64(i8* align 16 %12, i8 0, i64 324, i1 false)
  %13 = call i32 (i8*, ...) @__isoc99_scanf(i8* getelementptr inbounds ([6 x i8], [6 x i8]* @.str, i64 0, i64 0), i32* %7, i32* %8)
  %14 = load i32, i32* %7, align 4
  %15 = getelementptr inbounds [9 x [9 x i32]], [9 x [9 x i32]]* %2, i64 0, i64 4
  %16 = getelementptr inbounds [9 x i32], [9 x i32]* %15, i64 0, i64 4
  store i32 %14, i32* %16, align 16
  store i32 0, i32* %6, align 4
  br label %17

17:                                               ; preds = %155, %0
  %18 = load i32, i32* %6, align 4
  %19 = load i32, i32* %8, align 4
  %20 = icmp slt i32 %18, %19
  br i1 %20, label %21, label %158

21:                                               ; preds = %17
  store i32 0, i32* %4, align 4
  br label %22

22:                                               ; preds = %40, %21
  %23 = load i32, i32* %4, align 4
  %24 = icmp slt i32 %23, 9
  br i1 %24, label %25, label %43

25:                                               ; preds = %22
  store i32 0, i32* %5, align 4
  br label %26

26:                                               ; preds = %36, %25
  %27 = load i32, i32* %5, align 4
  %28 = icmp slt i32 %27, 9
  br i1 %28, label %29, label %39

29:                                               ; preds = %26
  %30 = load i32, i32* %4, align 4
  %31 = sext i32 %30 to i64
  %32 = getelementptr inbounds [9 x [9 x i32]], [9 x [9 x i32]]* %3, i64 0, i64 %31
  %33 = load i32, i32* %5, align 4
  %34 = sext i32 %33 to i64
  %35 = getelementptr inbounds [9 x i32], [9 x i32]* %32, i64 0, i64 %34
  store i32 0, i32* %35, align 4
  br label %36

36:                                               ; preds = %29
  %37 = load i32, i32* %5, align 4
  %38 = add nsw i32 %37, 1
  store i32 %38, i32* %5, align 4
  br label %26

39:                                               ; preds = %26
  br label %40

40:                                               ; preds = %39
  %41 = load i32, i32* %4, align 4
  %42 = add nsw i32 %41, 1
  store i32 %42, i32* %4, align 4
  br label %22

43:                                               ; preds = %22
  store i32 1, i32* %4, align 4
  br label %44

44:                                               ; preds = %122, %43
  %45 = load i32, i32* %4, align 4
  %46 = icmp slt i32 %45, 8
  br i1 %46, label %47, label %125

47:                                               ; preds = %44
  store i32 1, i32* %5, align 4
  br label %48

48:                                               ; preds = %118, %47
  %49 = load i32, i32* %5, align 4
  %50 = icmp slt i32 %49, 8
  br i1 %50, label %51, label %121

51:                                               ; preds = %48
  %52 = load i32, i32* %4, align 4
  %53 = sext i32 %52 to i64
  %54 = getelementptr inbounds [9 x [9 x i32]], [9 x [9 x i32]]* %3, i64 0, i64 %53
  %55 = load i32, i32* %5, align 4
  %56 = sext i32 %55 to i64
  %57 = getelementptr inbounds [9 x i32], [9 x i32]* %54, i64 0, i64 %56
  %58 = load i32, i32* %57, align 4
  %59 = load i32, i32* %4, align 4
  %60 = sext i32 %59 to i64
  %61 = getelementptr inbounds [9 x [9 x i32]], [9 x [9 x i32]]* %2, i64 0, i64 %60
  %62 = load i32, i32* %5, align 4
  %63 = sext i32 %62 to i64
  %64 = getelementptr inbounds [9 x i32], [9 x i32]* %61, i64 0, i64 %63
  %65 = load i32, i32* %64, align 4
  %66 = add nsw i32 %58, %65
  %67 = load i32, i32* %4, align 4
  %68 = sext i32 %67 to i64
  %69 = getelementptr inbounds [9 x [9 x i32]], [9 x [9 x i32]]* %3, i64 0, i64 %68
  %70 = load i32, i32* %5, align 4
  %71 = sext i32 %70 to i64
  %72 = getelementptr inbounds [9 x i32], [9 x i32]* %69, i64 0, i64 %71
  store i32 %66, i32* %72, align 4
  store i32 -1, i32* %9, align 4
  br label %73

73:                                               ; preds = %114, %51
  %74 = load i32, i32* %9, align 4
  %75 = icmp sle i32 %74, 1
  br i1 %75, label %76, label %117

76:                                               ; preds = %73
  store i32 -1, i32* %10, align 4
  br label %77

77:                                               ; preds = %110, %76
  %78 = load i32, i32* %10, align 4
  %79 = icmp sle i32 %78, 1
  br i1 %79, label %80, label %113

80:                                               ; preds = %77
  %81 = load i32, i32* %4, align 4
  %82 = load i32, i32* %9, align 4
  %83 = add nsw i32 %81, %82
  %84 = sext i32 %83 to i64
  %85 = getelementptr inbounds [9 x [9 x i32]], [9 x [9 x i32]]* %3, i64 0, i64 %84
  %86 = load i32, i32* %5, align 4
  %87 = load i32, i32* %10, align 4
  %88 = add nsw i32 %86, %87
  %89 = sext i32 %88 to i64
  %90 = getelementptr inbounds [9 x i32], [9 x i32]* %85, i64 0, i64 %89
  %91 = load i32, i32* %90, align 4
  %92 = load i32, i32* %4, align 4
  %93 = sext i32 %92 to i64
  %94 = getelementptr inbounds [9 x [9 x i32]], [9 x [9 x i32]]* %2, i64 0, i64 %93
  %95 = load i32, i32* %5, align 4
  %96 = sext i32 %95 to i64
  %97 = getelementptr inbounds [9 x i32], [9 x i32]* %94, i64 0, i64 %96
  %98 = load i32, i32* %97, align 4
  %99 = add nsw i32 %91, %98
  %100 = load i32, i32* %4, align 4
  %101 = load i32, i32* %9, align 4
  %102 = add nsw i32 %100, %101
  %103 = sext i32 %102 to i64
  %104 = getelementptr inbounds [9 x [9 x i32]], [9 x [9 x i32]]* %3, i64 0, i64 %103
  %105 = load i32, i32* %5, align 4
  %106 = load i32, i32* %10, align 4
  %107 = add nsw i32 %105, %106
  %108 = sext i32 %107 to i64
  %109 = getelementptr inbounds [9 x i32], [9 x i32]* %104, i64 0, i64 %108
  store i32 %99, i32* %109, align 4
  br label %110

110:                                              ; preds = %80
  %111 = load i32, i32* %10, align 4
  %112 = add nsw i32 %111, 1
  store i32 %112, i32* %10, align 4
  br label %77

113:                                              ; preds = %77
  br label %114

114:                                              ; preds = %113
  %115 = load i32, i32* %9, align 4
  %116 = add nsw i32 %115, 1
  store i32 %116, i32* %9, align 4
  br label %73

117:                                              ; preds = %73
  br label %118

118:                                              ; preds = %117
  %119 = load i32, i32* %5, align 4
  %120 = add nsw i32 %119, 1
  store i32 %120, i32* %5, align 4
  br label %48

121:                                              ; preds = %48
  br label %122

122:                                              ; preds = %121
  %123 = load i32, i32* %4, align 4
  %124 = add nsw i32 %123, 1
  store i32 %124, i32* %4, align 4
  br label %44

125:                                              ; preds = %44
  store i32 0, i32* %4, align 4
  br label %126

126:                                              ; preds = %151, %125
  %127 = load i32, i32* %4, align 4
  %128 = icmp slt i32 %127, 9
  br i1 %128, label %129, label %154

129:                                              ; preds = %126
  store i32 0, i32* %5, align 4
  br label %130

130:                                              ; preds = %147, %129
  %131 = load i32, i32* %5, align 4
  %132 = icmp slt i32 %131, 9
  br i1 %132, label %133, label %150

133:                                              ; preds = %130
  %134 = load i32, i32* %4, align 4
  %135 = sext i32 %134 to i64
  %136 = getelementptr inbounds [9 x [9 x i32]], [9 x [9 x i32]]* %3, i64 0, i64 %135
  %137 = load i32, i32* %5, align 4
  %138 = sext i32 %137 to i64
  %139 = getelementptr inbounds [9 x i32], [9 x i32]* %136, i64 0, i64 %138
  %140 = load i32, i32* %139, align 4
  %141 = load i32, i32* %4, align 4
  %142 = sext i32 %141 to i64
  %143 = getelementptr inbounds [9 x [9 x i32]], [9 x [9 x i32]]* %2, i64 0, i64 %142
  %144 = load i32, i32* %5, align 4
  %145 = sext i32 %144 to i64
  %146 = getelementptr inbounds [9 x i32], [9 x i32]* %143, i64 0, i64 %145
  store i32 %140, i32* %146, align 4
  br label %147

147:                                              ; preds = %133
  %148 = load i32, i32* %5, align 4
  %149 = add nsw i32 %148, 1
  store i32 %149, i32* %5, align 4
  br label %130

150:                                              ; preds = %130
  br label %151

151:                                              ; preds = %150
  %152 = load i32, i32* %4, align 4
  %153 = add nsw i32 %152, 1
  store i32 %153, i32* %4, align 4
  br label %126

154:                                              ; preds = %126
  br label %155

155:                                              ; preds = %154
  %156 = load i32, i32* %6, align 4
  %157 = add nsw i32 %156, 1
  store i32 %157, i32* %6, align 4
  br label %17

158:                                              ; preds = %17
  store i32 0, i32* %4, align 4
  br label %159

159:                                              ; preds = %186, %158
  %160 = load i32, i32* %4, align 4
  %161 = icmp slt i32 %160, 9
  br i1 %161, label %162, label %189

162:                                              ; preds = %159
  %163 = load i32, i32* %4, align 4
  %164 = sext i32 %163 to i64
  %165 = getelementptr inbounds [9 x [9 x i32]], [9 x [9 x i32]]* %2, i64 0, i64 %164
  %166 = getelementptr inbounds [9 x i32], [9 x i32]* %165, i64 0, i64 0
  %167 = load i32, i32* %166, align 4
  %168 = call i32 (i8*, ...) @printf(i8* getelementptr inbounds ([3 x i8], [3 x i8]* @.str.1, i64 0, i64 0), i32 %167)
  store i32 1, i32* %5, align 4
  br label %169

169:                                              ; preds = %181, %162
  %170 = load i32, i32* %5, align 4
  %171 = icmp slt i32 %170, 9
  br i1 %171, label %172, label %184

172:                                              ; preds = %169
  %173 = load i32, i32* %4, align 4
  %174 = sext i32 %173 to i64
  %175 = getelementptr inbounds [9 x [9 x i32]], [9 x [9 x i32]]* %2, i64 0, i64 %174
  %176 = load i32, i32* %5, align 4
  %177 = sext i32 %176 to i64
  %178 = getelementptr inbounds [9 x i32], [9 x i32]* %175, i64 0, i64 %177
  %179 = load i32, i32* %178, align 4
  %180 = call i32 (i8*, ...) @printf(i8* getelementptr inbounds ([4 x i8], [4 x i8]* @.str.2, i64 0, i64 0), i32 %179)
  br label %181

181:                                              ; preds = %172
  %182 = load i32, i32* %5, align 4
  %183 = add nsw i32 %182, 1
  store i32 %183, i32* %5, align 4
  br label %169

184:                                              ; preds = %169
  %185 = call i32 (i8*, ...) @printf(i8* getelementptr inbounds ([2 x i8], [2 x i8]* @.str.3, i64 0, i64 0))
  br label %186

186:                                              ; preds = %184
  %187 = load i32, i32* %4, align 4
  %188 = add nsw i32 %187, 1
  store i32 %188, i32* %4, align 4
  br label %159

189:                                              ; preds = %159
  %190 = load i32, i32* %1, align 4
  ret i32 %190
}

; Function Attrs: argmemonly nounwind willreturn
declare void @llvm.memset.p0i8.i64(i8* nocapture writeonly, i8, i64, i1 immarg) #1

declare dso_local i32 @__isoc99_scanf(i8*, ...) #2

declare dso_local i32 @printf(i8*, ...) #2


!llvm.module.flags = !{!0}
!llvm.ident = !{!1}

!0 = !{i32 1, !"wchar_size", i32 4}
!1 = !{!"clang version 10.0.0-4ubuntu1 "}
